target datalayout = "e-m:e-p270:32:32-p271:32:32-p272:64:64-i64:64-i128:128-f80:128-n8:16:32:64-S128"
target triple = "x86_64-pc-linux-gnu"

%struct.psset_bin_stats_s = type { i64, i64, i64 }
%struct.psset_stats_s = type { [64 x [2 x %struct.psset_bin_stats_s]], [2 x %struct.psset_bin_stats_s], [2 x %struct.psset_bin_stats_s] }
%struct.hpa_shard_nonderived_stats_s = type { i64, i64, i64, i64 }
%struct.hpa_shard_stats_s = type { %struct.psset_stats_s, %struct.hpa_shard_nonderived_stats_s }

; Function Attrs: nounwind uwtable
define internal void @hpa_shard_nonderived_stats_accum(ptr noundef %0, ptr noundef %1) #0 {
  %3 = alloca ptr, align 8
  %4 = alloca ptr, align 8
  store ptr %0, ptr %3, align 8, !tbaa !98
  store ptr %1, ptr %4, align 8, !tbaa !98
  %5 = load ptr, ptr %4, align 8, !tbaa !98
  %6 = getelementptr inbounds nuw %struct.hpa_shard_nonderived_stats_s, ptr %5, i32 0, i32 0
  %7 = load i64, ptr %6, align 8, !tbaa !100
  %8 = load ptr, ptr %3, align 8, !tbaa !98
  %9 = getelementptr inbounds nuw %struct.hpa_shard_nonderived_stats_s, ptr %8, i32 0, i32 0
  %10 = load i64, ptr %9, align 8, !tbaa !100
  %11 = add i64 %10, %7
  store i64 %11, ptr %9, align 8, !tbaa !100
  %12 = load ptr, ptr %4, align 8, !tbaa !98
  %13 = getelementptr inbounds nuw %struct.hpa_shard_nonderived_stats_s, ptr %12, i32 0, i32 1
  %14 = load i64, ptr %13, align 8, !tbaa !101
  %15 = load ptr, ptr %3, align 8, !tbaa !98
  %16 = getelementptr inbounds nuw %struct.hpa_shard_nonderived_stats_s, ptr %15, i32 0, i32 1
  %17 = load i64, ptr %16, align 8, !tbaa !101
  %18 = add i64 %17, %14
  store i64 %18, ptr %16, align 8, !tbaa !101
  %19 = load ptr, ptr %4, align 8, !tbaa !98
  %20 = getelementptr inbounds nuw %struct.hpa_shard_nonderived_stats_s, ptr %19, i32 0, i32 2
  %21 = load i64, ptr %20, align 8, !tbaa !102
  %22 = load ptr, ptr %3, align 8, !tbaa !98
  %23 = getelementptr inbounds nuw %struct.hpa_shard_nonderived_stats_s, ptr %22, i32 0, i32 2
  %24 = load i64, ptr %23, align 8, !tbaa !102
  %25 = add i64 %24, %21
  store i64 %25, ptr %23, align 8, !tbaa !102
  %26 = load ptr, ptr %4, align 8, !tbaa !98
  %27 = getelementptr inbounds nuw %struct.hpa_shard_nonderived_stats_s, ptr %26, i32 0, i32 3
  %28 = load i64, ptr %27, align 8, !tbaa !103
  %29 = load ptr, ptr %3, align 8, !tbaa !98
  %30 = getelementptr inbounds nuw %struct.hpa_shard_nonderived_stats_s, ptr %29, i32 0, i32 3
  %31 = load i64, ptr %30, align 8, !tbaa !103
  %32 = add i64 %31, %28
  store i64 %32, ptr %30, align 8, !tbaa !103
  ret void
}

; Function Attrs: nounwind uwtable
define hidden void @je_hpa_shard_stats_accum(ptr noundef %0, ptr noundef %1) #0 {
  %3 = alloca ptr, align 8
  %4 = alloca ptr, align 8
  store ptr %0, ptr %3, align 8, !tbaa !96
  store ptr %1, ptr %4, align 8, !tbaa !96
  %5 = load ptr, ptr %3, align 8, !tbaa !96
  %6 = getelementptr inbounds nuw %struct.hpa_shard_stats_s, ptr %5, i32 0, i32 0
  %7 = load ptr, ptr %4, align 8, !tbaa !96
  %8 = getelementptr inbounds nuw %struct.hpa_shard_stats_s, ptr %7, i32 0, i32 0
  call void @je_psset_stats_accum(ptr noundef %6, ptr noundef %8)
  %9 = load ptr, ptr %3, align 8, !tbaa !96
  %10 = getelementptr inbounds nuw %struct.hpa_shard_stats_s, ptr %9, i32 0, i32 1
  %11 = load ptr, ptr %4, align 8, !tbaa !96
  %12 = getelementptr inbounds nuw %struct.hpa_shard_stats_s, ptr %11, i32 0, i32 1
  call void @hpa_shard_nonderived_stats_accum(ptr noundef %10, ptr noundef %12)
  ret void
}